target datalayout = "e-m:e-p270:32:32-p271:32:32-p272:64:64-i64:64-i128:128-f80:128-n8:16:32:64-S128"
target triple = "x86_64-pc-linux-gnu"

%struct.evthread_lock_callbacks = type { i32, i32, ptr, ptr, ptr, ptr }
%struct.ev_token_bucket = type { i64, i64, i32 }
%struct.ev_token_bucket_cfg = type { i64, i64, i64, i64, %struct.timeval, i32 }
%struct.timeval = type { i64, i64 }
%struct.bufferevent_private = type { %struct.bufferevent, ptr, i8, i16, i16, i16, i32, i32, %struct.event_callback, i32, i32, ptr, i64, i64, ptr, %union.anon.7, ptr }
%struct.bufferevent = type { ptr, ptr, %struct.event, %struct.event, ptr, ptr, %struct.event_watermark, %struct.event_watermark, ptr, ptr, ptr, ptr, %struct.timeval, %struct.timeval, i16 }
%struct.event = type { %struct.event_callback, %union.anon.0, i32, i16, i16, ptr, %union.anon.2, %struct.timeval }
%union.anon.0 = type { %struct.anon.1 }
%struct.anon.1 = type { ptr, ptr }
%union.anon.2 = type { %struct.anon.3 }
%struct.anon.3 = type { %struct.anon.4, %struct.timeval }
%struct.anon.4 = type { ptr, ptr }
%struct.event_watermark = type { i64, i64 }
%struct.event_callback = type { %struct.anon, i16, i8, i8, %union.anon, ptr }
%struct.anon = type { ptr, ptr }
%union.anon = type { ptr }
%union.anon.7 = type { %struct.sockaddr_in6 }
%struct.sockaddr_in6 = type { i16, i16, i32, %struct.in6_addr, i32 }
%struct.in6_addr = type { %union.anon.8 }
%union.anon.8 = type { [4 x i32] }
%struct.bufferevent_rate_limit = type { %struct.anon.9, ptr, %struct.ev_token_bucket, ptr, %struct.event }
%struct.anon.9 = type { ptr, ptr }
%struct.bufferevent_rate_limit_group = type { %struct.rlim_group_member_list, %struct.ev_token_bucket, %struct.ev_token_bucket_cfg, i8, i64, i64, i32, i64, i64, %struct.event, %struct.evutil_weakrand_state, ptr }
%struct.rlim_group_member_list = type { ptr }
%struct.evutil_weakrand_state = type { i32 }

@evthread_lock_fns_ = external global %struct.evthread_lock_callbacks, align 8

; Function Attrs: inlinehint nounwind uwtable
define internal i32 @EVLOCK_TRY_LOCK_(ptr noundef %0) #4 {
  %2 = alloca i32, align 4
  %3 = alloca ptr, align 8
  %4 = alloca i32, align 4
  store ptr %0, ptr %3, align 8
  %5 = load ptr, ptr %3, align 8
  %6 = icmp ne ptr %5, null
  br i1 %6, label %7, label %18

7:                                                ; preds = %1
  %8 = load ptr, ptr getelementptr inbounds nuw (%struct.evthread_lock_callbacks, ptr @evthread_lock_fns_, i32 0, i32 4), align 8
  %9 = icmp ne ptr %8, null
  br i1 %9, label %10, label %18

10:                                               ; preds = %7
  call void @llvm.lifetime.start.p0(i64 4, ptr %4) #5
  %11 = load ptr, ptr getelementptr inbounds nuw (%struct.evthread_lock_callbacks, ptr @evthread_lock_fns_, i32 0, i32 4), align 8
  %12 = load ptr, ptr %3, align 8
  %13 = call i32 %11(i32 noundef 16, ptr noundef %12)
  store i32 %13, ptr %4, align 4
  %14 = load i32, ptr %4, align 4
  %15 = icmp ne i32 %14, 0
  %16 = xor i1 %15, true
  %17 = zext i1 %16 to i32
  store i32 %17, ptr %2, align 4
  call void @llvm.lifetime.end.p0(i64 4, ptr %4) #5
  br label %19

18:                                               ; preds = %7, %1
  store i32 1, ptr %2, align 4
  br label %19

19:                                               ; preds = %18, %10
  %20 = load i32, ptr %2, align 4
  ret i32 %20
}

; Function Attrs: nounwind uwtable
define internal i32 @bev_group_suspend_reading_(ptr noundef %0) #0 {
  %2 = alloca ptr, align 8
  %3 = alloca ptr, align 8
  store ptr %0, ptr %2, align 8
  call void @llvm.lifetime.start.p0(i64 8, ptr %3) #5
  %4 = load ptr, ptr %2, align 8
  %5 = getelementptr inbounds nuw %struct.bufferevent_rate_limit_group, ptr %4, i32 0, i32 3
  %6 = load i8, ptr %5, align 8
  %7 = and i8 %6, -2
  %8 = or i8 %7, 1
  store i8 %8, ptr %5, align 8
  %9 = load ptr, ptr %2, align 8
  %10 = getelementptr inbounds nuw %struct.bufferevent_rate_limit_group, ptr %9, i32 0, i32 3
  %11 = load i8, ptr %10, align 8
  %12 = and i8 %11, -5
  %13 = or i8 %12, 0
  store i8 %13, ptr %10, align 8
  %14 = load ptr, ptr %2, align 8
  %15 = getelementptr inbounds nuw %struct.bufferevent_rate_limit_group, ptr %14, i32 0, i32 0
  %16 = getelementptr inbounds nuw %struct.rlim_group_member_list, ptr %15, i32 0, i32 0
  %17 = load ptr, ptr %16, align 8
  store ptr %17, ptr %3, align 8
  br label %18

18:                                               ; preds = %45, %1
  %19 = load ptr, ptr %3, align 8
  %20 = icmp ne ptr %19, null
  br i1 %20, label %21, label %52

21:                                               ; preds = %18
  %22 = load ptr, ptr %3, align 8
  %23 = getelementptr inbounds nuw %struct.bufferevent_private, ptr %22, i32 0, i32 11
  %24 = load ptr, ptr %23, align 8
  %25 = call i32 @EVLOCK_TRY_LOCK_(ptr noundef %24)
  %26 = icmp ne i32 %25, 0
  br i1 %26, label %27, label %44

27:                                               ; preds = %21
  %28 = load ptr, ptr %3, align 8
  %29 = getelementptr inbounds nuw %struct.bufferevent_private, ptr %28, i32 0, i32 0
  call void @bufferevent_suspend_read_(ptr noundef %29, i16 noundef zeroext 4)
  br label %30

30:                                               ; preds = %27
  %31 = load ptr, ptr %3, align 8
  %32 = getelementptr inbounds nuw %struct.bufferevent_private, ptr %31, i32 0, i32 11
  %33 = load ptr, ptr %32, align 8
  %34 = icmp ne ptr %33, null
  br i1 %34, label %35, label %41

35:                                               ; preds = %30
  %36 = load ptr, ptr getelementptr inbounds nuw (%struct.evthread_lock_callbacks, ptr @evthread_lock_fns_, i32 0, i32 5), align 8
  %37 = load ptr, ptr %3, align 8
  %38 = getelementptr inbounds nuw %struct.bufferevent_private, ptr %37, i32 0, i32 11
  %39 = load ptr, ptr %38, align 8
  %40 = call i32 %36(i32 noundef 0, ptr noundef %39)
  br label %41

41:                                               ; preds = %35, %30
  br label %42

42:                                               ; preds = %41
  br label %43

43:                                               ; preds = %42
  br label %44

44:                                               ; preds = %43, %21
  br label %45

45:                                               ; preds = %44
  %46 = load ptr, ptr %3, align 8
  %47 = getelementptr inbounds nuw %struct.bufferevent_private, ptr %46, i32 0, i32 14
  %48 = load ptr, ptr %47, align 8
  %49 = getelementptr inbounds nuw %struct.bufferevent_rate_limit, ptr %48, i32 0, i32 0
  %50 = getelementptr inbounds nuw %struct.anon.9, ptr %49, i32 0, i32 0
  %51 = load ptr, ptr %50, align 8
  store ptr %51, ptr %3, align 8
  br label %18, !llvm.loop !3

52:                                               ; preds = %18
  call void @llvm.lifetime.end.p0(i64 8, ptr %3) #5
  ret i32 0
}

; Function Attrs: nounwind uwtable
define i32 @bufferevent_decrement_read_buckets_(ptr noundef %0, i64 noundef %1) #0 {
  %3 = alloca i32, align 4
  %4 = alloca ptr, align 8
  %5 = alloca i64, align 8
  %6 = alloca i32, align 4
  %7 = alloca i32, align 4
  store ptr %0, ptr %4, align 8
  store i64 %1, ptr %5, align 8
  call void @llvm.lifetime.start.p0(i64 4, ptr %6) #5
  store i32 0, ptr %6, align 4
  %8 = load ptr, ptr %4, align 8
  %9 = getelementptr inbounds nuw %struct.bufferevent_private, ptr %8, i32 0, i32 14
  %10 = load ptr, ptr %9, align 8
  %11 = icmp ne ptr %10, null
  br i1 %11, label %13, label %12

12:                                               ; preds = %2
  store i32 0, ptr %3, align 4
  store i32 1, ptr %7, align 4
  br label %186

13:                                               ; preds = %2
  %14 = load ptr, ptr %4, align 8
  %15 = getelementptr inbounds nuw %struct.bufferevent_private, ptr %14, i32 0, i32 14
  %16 = load ptr, ptr %15, align 8
  %17 = getelementptr inbounds nuw %struct.bufferevent_rate_limit, ptr %16, i32 0, i32 3
  %18 = load ptr, ptr %17, align 8
  %19 = icmp ne ptr %18, null
  br i1 %19, label %20, label %78

20:                                               ; preds = %13
  %21 = load i64, ptr %5, align 8
  %22 = load ptr, ptr %4, align 8
  %23 = getelementptr inbounds nuw %struct.bufferevent_private, ptr %22, i32 0, i32 14
  %24 = load ptr, ptr %23, align 8
  %25 = getelementptr inbounds nuw %struct.bufferevent_rate_limit, ptr %24, i32 0, i32 2
  %26 = getelementptr inbounds nuw %struct.ev_token_bucket, ptr %25, i32 0, i32 0
  %27 = load i64, ptr %26, align 8
  %28 = sub nsw i64 %27, %21
  store i64 %28, ptr %26, align 8
  %29 = load ptr, ptr %4, align 8
  %30 = getelementptr inbounds nuw %struct.bufferevent_private, ptr %29, i32 0, i32 14
  %31 = load ptr, ptr %30, align 8
  %32 = getelementptr inbounds nuw %struct.bufferevent_rate_limit, ptr %31, i32 0, i32 2
  %33 = getelementptr inbounds nuw %struct.ev_token_bucket, ptr %32, i32 0, i32 0
  %34 = load i64, ptr %33, align 8
  %35 = icmp sle i64 %34, 0
  br i1 %35, label %36, label %53

36:                                               ; preds = %20
  %37 = load ptr, ptr %4, align 8
  %38 = getelementptr inbounds nuw %struct.bufferevent_private, ptr %37, i32 0, i32 0
  call void @bufferevent_suspend_read_(ptr noundef %38, i16 noundef zeroext 2)
  %39 = load ptr, ptr %4, align 8
  %40 = getelementptr inbounds nuw %struct.bufferevent_private, ptr %39, i32 0, i32 14
  %41 = load ptr, ptr %40, align 8
  %42 = getelementptr inbounds nuw %struct.bufferevent_rate_limit, ptr %41, i32 0, i32 4
  %43 = load ptr, ptr %4, align 8
  %44 = getelementptr inbounds nuw %struct.bufferevent_private, ptr %43, i32 0, i32 14
  %45 = load ptr, ptr %44, align 8
  %46 = getelementptr inbounds nuw %struct.bufferevent_rate_limit, ptr %45, i32 0, i32 3
  %47 = load ptr, ptr %46, align 8
  %48 = getelementptr inbounds nuw %struct.ev_token_bucket_cfg, ptr %47, i32 0, i32 4
  %49 = call i32 @event_add(ptr noundef %42, ptr noundef %48)
  %50 = icmp slt i32 %49, 0
  br i1 %50, label %51, label %52

51:                                               ; preds = %36
  store i32 -1, ptr %6, align 4
  br label %52

52:                                               ; preds = %51, %36
  br label %77

53:                                               ; preds = %20
  %54 = load ptr, ptr %4, align 8
  %55 = getelementptr inbounds nuw %struct.bufferevent_private, ptr %54, i32 0, i32 4
  %56 = load i16, ptr %55, align 4
  %57 = zext i16 %56 to i32
  %58 = and i32 %57, 2
  %59 = icmp ne i32 %58, 0
  br i1 %59, label %60, label %76

60:                                               ; preds = %53
  %61 = load ptr, ptr %4, align 8
  %62 = getelementptr inbounds nuw %struct.bufferevent_private, ptr %61, i32 0, i32 5
  %63 = load i16, ptr %62, align 2
  %64 = zext i16 %63 to i32
  %65 = and i32 %64, 2
  %66 = icmp ne i32 %65, 0
  br i1 %66, label %73, label %67

67:                                               ; preds = %60
  %68 = load ptr, ptr %4, align 8
  %69 = getelementptr inbounds nuw %struct.bufferevent_private, ptr %68, i32 0, i32 14
  %70 = load ptr, ptr %69, align 8
  %71 = getelementptr inbounds nuw %struct.bufferevent_rate_limit, ptr %70, i32 0, i32 4
  %72 = call i32 @event_del(ptr noundef %71)
  br label %73

73:                                               ; preds = %67, %60
  %74 = load ptr, ptr %4, align 8
  %75 = getelementptr inbounds nuw %struct.bufferevent_private, ptr %74, i32 0, i32 0
  call void @bufferevent_unsuspend_read_(ptr noundef %75, i16 noundef zeroext 2)
  br label %76

76:                                               ; preds = %73, %53
  br label %77

77:                                               ; preds = %76, %52
  br label %78

78:                                               ; preds = %77, %13
  %79 = load ptr, ptr %4, align 8
  %80 = getelementptr inbounds nuw %struct.bufferevent_private, ptr %79, i32 0, i32 14
  %81 = load ptr, ptr %80, align 8
  %82 = getelementptr inbounds nuw %struct.bufferevent_rate_limit, ptr %81, i32 0, i32 1
  %83 = load ptr, ptr %82, align 8
  %84 = icmp ne ptr %83, null
  br i1 %84, label %85, label %184

85:                                               ; preds = %78
  br label %86

86:                                               ; preds = %85
  %87 = load ptr, ptr %4, align 8
  %88 = getelementptr inbounds nuw %struct.bufferevent_private, ptr %87, i32 0, i32 14
  %89 = load ptr, ptr %88, align 8
  %90 = getelementptr inbounds nuw %struct.bufferevent_rate_limit, ptr %89, i32 0, i32 1
  %91 = load ptr, ptr %90, align 8
  %92 = getelementptr inbounds nuw %struct.bufferevent_rate_limit_group, ptr %91, i32 0, i32 11
  %93 = load ptr, ptr %92, align 8
  %94 = icmp ne ptr %93, null
  br i1 %94, label %95, label %105

95:                                               ; preds = %86
  %96 = load ptr, ptr getelementptr inbounds nuw (%struct.evthread_lock_callbacks, ptr @evthread_lock_fns_, i32 0, i32 4), align 8
  %97 = load ptr, ptr %4, align 8
  %98 = getelementptr inbounds nuw %struct.bufferevent_private, ptr %97, i32 0, i32 14
  %99 = load ptr, ptr %98, align 8
  %100 = getelementptr inbounds nuw %struct.bufferevent_rate_limit, ptr %99, i32 0, i32 1
  %101 = load ptr, ptr %100, align 8
  %102 = getelementptr inbounds nuw %struct.bufferevent_rate_limit_group, ptr %101, i32 0, i32 11
  %103 = load ptr, ptr %102, align 8
  %104 = call i32 %96(i32 noundef 0, ptr noundef %103)
  br label %105

105:                                              ; preds = %95, %86
  br label %106

106:                                              ; preds = %105
  br label %107

107:                                              ; preds = %106
  %108 = load i64, ptr %5, align 8
  %109 = load ptr, ptr %4, align 8
  %110 = getelementptr inbounds nuw %struct.bufferevent_private, ptr %109, i32 0, i32 14
  %111 = load ptr, ptr %110, align 8
  %112 = getelementptr inbounds nuw %struct.bufferevent_rate_limit, ptr %111, i32 0, i32 1
  %113 = load ptr, ptr %112, align 8
  %114 = getelementptr inbounds nuw %struct.bufferevent_rate_limit_group, ptr %113, i32 0, i32 1
  %115 = getelementptr inbounds nuw %struct.ev_token_bucket, ptr %114, i32 0, i32 0
  %116 = load i64, ptr %115, align 8
  %117 = sub nsw i64 %116, %108
  store i64 %117, ptr %115, align 8
  %118 = load i64, ptr %5, align 8
  %119 = load ptr, ptr %4, align 8
  %120 = getelementptr inbounds nuw %struct.bufferevent_private, ptr %119, i32 0, i32 14
  %121 = load ptr, ptr %120, align 8
  %122 = getelementptr inbounds nuw %struct.bufferevent_rate_limit, ptr %121, i32 0, i32 1
  %123 = load ptr, ptr %122, align 8
  %124 = getelementptr inbounds nuw %struct.bufferevent_rate_limit_group, ptr %123, i32 0, i32 4
  %125 = load i64, ptr %124, align 8
  %126 = add i64 %125, %118
  store i64 %126, ptr %124, align 8
  %127 = load ptr, ptr %4, align 8
  %128 = getelementptr inbounds nuw %struct.bufferevent_private, ptr %127, i32 0, i32 14
  %129 = load ptr, ptr %128, align 8
  %130 = getelementptr inbounds nuw %struct.bufferevent_rate_limit, ptr %129, i32 0, i32 1
  %131 = load ptr, ptr %130, align 8
  %132 = getelementptr inbounds nuw %struct.bufferevent_rate_limit_group, ptr %131, i32 0, i32 1
  %133 = getelementptr inbounds nuw %struct.ev_token_bucket, ptr %132, i32 0, i32 0
  %134 = load i64, ptr %133, align 8
  %135 = icmp sle i64 %134, 0
  br i1 %135, label %136, label %143

136:                                              ; preds = %107
  %137 = load ptr, ptr %4, align 8
  %138 = getelementptr inbounds nuw %struct.bufferevent_private, ptr %137, i32 0, i32 14
  %139 = load ptr, ptr %138, align 8
  %140 = getelementptr inbounds nuw %struct.bufferevent_rate_limit, ptr %139, i32 0, i32 1
  %141 = load ptr, ptr %140, align 8
  %142 = call i32 @bev_group_suspend_reading_(ptr noundef %141)
  br label %161

143:                                              ; preds = %107
  %144 = load ptr, ptr %4, align 8
  %145 = getelementptr inbounds nuw %struct.bufferevent_private, ptr %144, i32 0, i32 14
  %146 = load ptr, ptr %145, align 8
  %147 = getelementptr inbounds nuw %struct.bufferevent_rate_limit, ptr %146, i32 0, i32 1
  %148 = load ptr, ptr %147, align 8
  %149 = getelementptr inbounds nuw %struct.bufferevent_rate_limit_group, ptr %148, i32 0, i32 3
  %150 = load i8, ptr %149, align 8
  %151 = and i8 %150, 1
  %152 = zext i8 %151 to i32
  %153 = icmp ne i32 %152, 0
  br i1 %153, label %154, label %160

154:                                              ; preds = %143
  %155 = load ptr, ptr %4, align 8
  %156 = getelementptr inbounds nuw %struct.bufferevent_private, ptr %155, i32 0, i32 14
  %157 = load ptr, ptr %156, align 8
  %158 = getelementptr inbounds nuw %struct.bufferevent_rate_limit, ptr %157, i32 0, i32 1
  %159 = load ptr, ptr %158, align 8
  call void @bev_group_unsuspend_reading_(ptr noundef %159)
  br label %160

160:                                              ; preds = %154, %143
  br label %161

161:                                              ; preds = %160, %136
  br label %162

162:                                              ; preds = %161
  %163 = load ptr, ptr %4, align 8
  %164 = getelementptr inbounds nuw %struct.bufferevent_private, ptr %163, i32 0, i32 14
  %165 = load ptr, ptr %164, align 8
  %166 = getelementptr inbounds nuw %struct.bufferevent_rate_limit, ptr %165, i32 0, i32 1
  %167 = load ptr, ptr %166, align 8
  %168 = getelementptr inbounds nuw %struct.bufferevent_rate_limit_group, ptr %167, i32 0, i32 11
  %169 = load ptr, ptr %168, align 8
  %170 = icmp ne ptr %169, null
  br i1 %170, label %171, label %181

171:                                              ; preds = %162
  %172 = load ptr, ptr getelementptr inbounds nuw (%struct.evthread_lock_callbacks, ptr @evthread_lock_fns_, i32 0, i32 5), align 8
  %173 = load ptr, ptr %4, align 8
  %174 = getelementptr inbounds nuw %struct.bufferevent_private, ptr %173, i32 0, i32 14
  %175 = load ptr, ptr %174, align 8
  %176 = getelementptr inbounds nuw %struct.bufferevent_rate_limit, ptr %175, i32 0, i32 1
  %177 = load ptr, ptr %176, align 8
  %178 = getelementptr inbounds nuw %struct.bufferevent_rate_limit_group, ptr %177, i32 0, i32 11
  %179 = load ptr, ptr %178, align 8
  %180 = call i32 %172(i32 noundef 0, ptr noundef %179)
  br label %181

181:                                              ; preds = %171, %162
  br label %182

182:                                              ; preds = %181
  br label %183

183:                                              ; preds = %182
  br label %184

184:                                              ; preds = %183, %78
  %185 = load i32, ptr %6, align 4
  store i32 %185, ptr %3, align 4
  store i32 1, ptr %7, align 4
  br label %186

186:                                              ; preds = %184, %12
  call void @llvm.lifetime.end.p0(i64 4, ptr %6) #5
  %187 = load i32, ptr %3, align 4
  ret i32 %187
}