; Function Attrs: nounwind uwtable
define range(i32 -1, 1) i32 @bufferevent_decrement_read_buckets_(ptr noundef %0, i64 noundef %1) local_unnamed_addr #3 {
  %3 = getelementptr inbounds nuw i8, ptr %0, i64 472
  %4 = load ptr, ptr %3, align 8
  %.not = icmp eq ptr %4, null
  br i1 %.not, label %91, label %5

5:                                                ; preds = %2
  %6 = getelementptr inbounds nuw i8, ptr %4, i64 48
  %7 = load ptr, ptr %6, align 8
  %.not31 = icmp eq ptr %7, null
  br i1 %.not31, label %35, label %8

8:                                                ; preds = %5
  %9 = getelementptr inbounds nuw i8, ptr %4, i64 24
  %10 = load i64, ptr %9, align 8
  %11 = sub nsw i64 %10, %1
  store i64 %11, ptr %9, align 8
  %12 = load ptr, ptr %3, align 8
  %13 = getelementptr inbounds nuw i8, ptr %12, i64 24
  %14 = load i64, ptr %13, align 8
  %15 = icmp slt i64 %14, 1
  br i1 %15, label %16, label %23

16:                                               ; preds = %8
  tail call void @bufferevent_suspend_read_(ptr noundef nonnull %0, i16 noundef zeroext 2) #10
  %17 = load ptr, ptr %3, align 8
  %18 = getelementptr inbounds nuw i8, ptr %17, i64 56
  %19 = getelementptr inbounds nuw i8, ptr %17, i64 48
  %20 = load ptr, ptr %19, align 8
  %21 = getelementptr inbounds nuw i8, ptr %20, i64 32
  %22 = tail call i32 @event_add(ptr noundef nonnull %18, ptr noundef nonnull %21) #10
  %.lobit = ashr i32 %22, 31
  br label %35

23:                                               ; preds = %8
  %24 = getelementptr inbounds nuw i8, ptr %0, i64 388
  %25 = load i16, ptr %24, align 4
  %26 = and i16 %25, 2
  %.not32 = icmp eq i16 %26, 0
  br i1 %.not32, label %35, label %27

27:                                               ; preds = %23
  %28 = getelementptr inbounds nuw i8, ptr %0, i64 390
  %29 = load i16, ptr %28, align 2
  %30 = and i16 %29, 2
  %.not33 = icmp eq i16 %30, 0
  br i1 %.not33, label %31, label %34

31:                                               ; preds = %27
  %32 = getelementptr inbounds nuw i8, ptr %12, i64 56
  %33 = tail call i32 @event_del(ptr noundef nonnull %32) #10
  br label %34

34:                                               ; preds = %31, %27
  tail call void @bufferevent_unsuspend_read_(ptr noundef nonnull %0, i16 noundef zeroext 2) #10
  br label %35

35:                                               ; preds = %16, %34, %23, %5
  %.0 = phi i32 [ 0, %34 ], [ 0, %23 ], [ 0, %5 ], [ %.lobit, %16 ]
  %36 = load ptr, ptr %3, align 8
  %37 = getelementptr inbounds nuw i8, ptr %36, i64 16
  %38 = load ptr, ptr %37, align 8
  %.not34 = icmp eq ptr %38, null
  br i1 %.not34, label %91, label %39

39:                                               ; preds = %35
  %40 = getelementptr inbounds nuw i8, ptr %38, i64 264
  %41 = load ptr, ptr %40, align 8
  %.not35 = icmp eq ptr %41, null
  br i1 %.not35, label %45, label %42

42:                                               ; preds = %39
  %43 = load ptr, ptr getelementptr inbounds nuw (i8, ptr @evthread_lock_fns_, i64 24), align 8
  %44 = tail call i32 %43(i32 noundef 0, ptr noundef nonnull %41) #10
  %.pre = load ptr, ptr %3, align 8
  %.phi.trans.insert = getelementptr inbounds nuw i8, ptr %.pre, i64 16
  %.pre38 = load ptr, ptr %.phi.trans.insert, align 8
  br label %45

45:                                               ; preds = %42, %39
  %46 = phi ptr [ %.pre38, %42 ], [ %38, %39 ]
  %47 = getelementptr inbounds nuw i8, ptr %46, i64 8
  %48 = load i64, ptr %47, align 8
  %49 = sub nsw i64 %48, %1
  store i64 %49, ptr %47, align 8
  %50 = load ptr, ptr %3, align 8
  %51 = getelementptr inbounds nuw i8, ptr %50, i64 16
  %52 = load ptr, ptr %51, align 8
  %53 = getelementptr inbounds nuw i8, ptr %52, i64 96
  %54 = load i64, ptr %53, align 8
  %55 = add i64 %54, %1
  store i64 %55, ptr %53, align 8
  %56 = load ptr, ptr %3, align 8
  %57 = getelementptr inbounds nuw i8, ptr %56, i64 16
  %58 = load ptr, ptr %57, align 8
  %59 = getelementptr inbounds nuw i8, ptr %58, i64 8
  %60 = load i64, ptr %59, align 8
  %61 = icmp slt i64 %60, 1
  %62 = getelementptr inbounds nuw i8, ptr %58, i64 88
  %63 = load i8, ptr %62, align 8
  br i1 %61, label %64, label %80

64:                                               ; preds = %45
  %65 = and i8 %63, -6
  %66 = or disjoint i8 %65, 1
  store i8 %66, ptr %62, align 8
  %.014.i = load ptr, ptr %58, align 8
  %.not15.i = icmp eq ptr %.014.i, null
  br i1 %.not15.i, label %bev_group_suspend_reading_.exit, label %.lr.ph.i

.lr.ph.i:                                         ; preds = %64, %77
  %.016.i = phi ptr [ %.0.i, %77 ], [ %.014.i, %64 ]
  %67 = getelementptr inbounds nuw i8, ptr %.016.i, i64 448
  %68 = load ptr, ptr %67, align 8
  %69 = icmp ne ptr %68, null
  %70 = load ptr, ptr getelementptr inbounds nuw (i8, ptr @evthread_lock_fns_, i64 24), align 8
  %71 = icmp ne ptr %70, null
  %or.cond.i.i = select i1 %69, i1 %71, i1 false
  br i1 %or.cond.i.i, label %EVLOCK_TRY_LOCK_.exit.i, label %EVLOCK_TRY_LOCK_.exit.thread.i

EVLOCK_TRY_LOCK_.exit.i:                          ; preds = %.lr.ph.i
  %72 = tail call i32 %70(i32 noundef 16, ptr noundef nonnull %68) #10
  %.not.i.not.i = icmp eq i32 %72, 0
  br i1 %.not.i.not.i, label %EVLOCK_TRY_LOCK_.exit.thread.i, label %77

EVLOCK_TRY_LOCK_.exit.thread.i:                   ; preds = %EVLOCK_TRY_LOCK_.exit.i, %.lr.ph.i
  tail call void @bufferevent_suspend_read_(ptr noundef nonnull %.016.i, i16 noundef zeroext 4) #10
  %73 = load ptr, ptr %67, align 8
  %.not11.i = icmp eq ptr %73, null
  br i1 %.not11.i, label %77, label %74

74:                                               ; preds = %EVLOCK_TRY_LOCK_.exit.thread.i
  %75 = load ptr, ptr getelementptr inbounds nuw (i8, ptr @evthread_lock_fns_, i64 32), align 8
  %76 = tail call i32 %75(i32 noundef 0, ptr noundef nonnull %73) #10
  br label %77

77:                                               ; preds = %74, %EVLOCK_TRY_LOCK_.exit.thread.i, %EVLOCK_TRY_LOCK_.exit.i
  %78 = getelementptr inbounds nuw i8, ptr %.016.i, i64 472
  %79 = load ptr, ptr %78, align 8
  %.0.i = load ptr, ptr %79, align 8
  %.not.i = icmp eq ptr %.0.i, null
  br i1 %.not.i, label %bev_group_suspend_reading_.exit, label %.lr.ph.i, !llvm.loop !3

80:                                               ; preds = %45
  %81 = and i8 %63, 1
  %.not36 = icmp eq i8 %81, 0
  br i1 %.not36, label %bev_group_suspend_reading_.exit, label %82

82:                                               ; preds = %80
  tail call fastcc void @bev_group_unsuspend_reading_(ptr noundef nonnull %58)
  br label %bev_group_suspend_reading_.exit

bev_group_suspend_reading_.exit:                  ; preds = %77, %64, %82, %80
  %83 = load ptr, ptr %3, align 8
  %84 = getelementptr inbounds nuw i8, ptr %83, i64 16
  %85 = load ptr, ptr %84, align 8
  %86 = getelementptr inbounds nuw i8, ptr %85, i64 264
  %87 = load ptr, ptr %86, align 8
  %.not37 = icmp eq ptr %87, null
  br i1 %.not37, label %91, label %88

88:                                               ; preds = %bev_group_suspend_reading_.exit
  %89 = load ptr, ptr getelementptr inbounds nuw (i8, ptr @evthread_lock_fns_, i64 32), align 8
  %90 = tail call i32 %89(i32 noundef 0, ptr noundef nonnull %87) #10
  br label %91

91:                                               ; preds = %35, %88, %bev_group_suspend_reading_.exit, %2
  %.026 = phi i32 [ 0, %2 ], [ %.0, %bev_group_suspend_reading_.exit ], [ %.0, %88 ], [ %.0, %35 ]
  ret i32 %.026
}